target datalayout = "e-m:e-p270:32:32-p271:32:32-p272:64:64-i64:64-i128:128-f80:128-n8:16:32:64-S128"
target triple = "x86_64-pc-linux-gnu"

%struct._SPI_connection = type { i64, ptr, i32, %struct.slist_head, ptr, ptr, ptr, i32, ptr, i8, i8, i64, ptr, i32 }
%struct.slist_head = type { %struct.slist_node }
%struct.slist_node = type { ptr }
%struct._SPI_plan = type { i32, i8, i8, ptr, ptr, i32, i32, i32, ptr, ptr, ptr }
%struct.SPIExecuteOptions = type { ptr, i8, i8, i8, i64, ptr, ptr }
%struct.SPICallbackArg = type { ptr, i32 }
%struct.ErrorContextCallback = type { ptr, ptr, ptr }
%struct.ForEachState = type { ptr, i32 }
%struct.List = type { i32, i32, i32, ptr, [0 x %union.ListCell] }
%union.ListCell = type { ptr }
%struct.RawStmt = type { i32, ptr, i32, i32 }
%struct.ParamListInfoData = type { ptr, ptr, ptr, ptr, ptr, ptr, ptr, i32, [0 x %struct.ParamExternData] }
%struct.ParamExternData = type { i64, i8, i16, i32 }

@_SPI_current = internal global ptr null, align 8
@error_context_stack = external global ptr, align 8
@CurrentMemoryContext = external global ptr, align 8

; Function Attrs: inlinehint nounwind uwtable
define internal ptr @MemoryContextSwitchTo(ptr noundef %0) #4 {
  %2 = alloca ptr, align 8
  %3 = alloca ptr, align 8
  store ptr %0, ptr %2, align 8
  call void @llvm.lifetime.start.p0(i64 8, ptr %3) #9
  %4 = load ptr, ptr @CurrentMemoryContext, align 8
  store ptr %4, ptr %3, align 8
  %5 = load ptr, ptr %2, align 8
  store ptr %5, ptr @CurrentMemoryContext, align 8
  %6 = load ptr, ptr %3, align 8
  call void @llvm.lifetime.end.p0(i64 8, ptr %3) #9
  ret ptr %6
}

; Function Attrs: nounwind uwtable
define internal ptr @_SPI_procmem() #0 {
  %1 = load ptr, ptr @_SPI_current, align 8
  %2 = getelementptr inbounds nuw %struct._SPI_connection, ptr %1, i32 0, i32 4
  %3 = load ptr, ptr %2, align 8
  %4 = call ptr @MemoryContextSwitchTo(ptr noundef %3)
  ret ptr %4
}

; Function Attrs: nounwind uwtable
define internal ptr @_SPI_execmem() #0 {
  %1 = load ptr, ptr @_SPI_current, align 8
  %2 = getelementptr inbounds nuw %struct._SPI_connection, ptr %1, i32 0, i32 5
  %3 = load ptr, ptr %2, align 8
  %4 = call ptr @MemoryContextSwitchTo(ptr noundef %3)
  ret ptr %4
}

; Function Attrs: nounwind uwtable
define internal i32 @_SPI_end_call(i1 noundef zeroext %0) #0 {
  %2 = alloca i8, align 1
  %3 = zext i1 %0 to i8
  store i8 %3, ptr %2, align 1
  %4 = load i8, ptr %2, align 1, !range !4, !noundef !5
  %5 = trunc i8 %4 to i1
  br i1 %5, label %6, label %13

6:                                                ; preds = %1
  %7 = call ptr @_SPI_procmem()
  %8 = load ptr, ptr @_SPI_current, align 8
  %9 = getelementptr inbounds nuw %struct._SPI_connection, ptr %8, i32 0, i32 2
  store i32 0, ptr %9, align 8
  %10 = load ptr, ptr @_SPI_current, align 8
  %11 = getelementptr inbounds nuw %struct._SPI_connection, ptr %10, i32 0, i32 5
  %12 = load ptr, ptr %11, align 8
  call void @MemoryContextReset(ptr noundef %12)
  br label %13

13:                                               ; preds = %6, %1
  ret i32 0
}

; Function Attrs: nounwind uwtable
define internal void @_SPI_prepare_oneshot_plan(ptr noundef %0, ptr noundef %1) #0 {
  %3 = alloca ptr, align 8
  %4 = alloca ptr, align 8
  %5 = alloca ptr, align 8
  %6 = alloca ptr, align 8
  %7 = alloca ptr, align 8
  %8 = alloca %struct.SPICallbackArg, align 8
  %9 = alloca %struct.ErrorContextCallback, align 8
  %10 = alloca %struct.ForEachState, align 8
  %11 = alloca ptr, align 8
  %12 = alloca ptr, align 8
  store ptr %0, ptr %3, align 8
  store ptr %1, ptr %4, align 8
  call void @llvm.lifetime.start.p0(i64 8, ptr %5) #9
  call void @llvm.lifetime.start.p0(i64 8, ptr %6) #9
  call void @llvm.lifetime.start.p0(i64 8, ptr %7) #9
  call void @llvm.lifetime.start.p0(i64 16, ptr %8) #9
  call void @llvm.lifetime.start.p0(i64 24, ptr %9) #9
  %13 = load ptr, ptr %3, align 8
  %14 = getelementptr inbounds nuw %struct.SPICallbackArg, ptr %8, i32 0, i32 0
  store ptr %13, ptr %14, align 8
  %15 = load ptr, ptr %4, align 8
  %16 = getelementptr inbounds nuw %struct._SPI_plan, ptr %15, i32 0, i32 5
  %17 = load i32, ptr %16, align 8
  %18 = getelementptr inbounds nuw %struct.SPICallbackArg, ptr %8, i32 0, i32 1
  store i32 %17, ptr %18, align 8
  %19 = getelementptr inbounds nuw %struct.ErrorContextCallback, ptr %9, i32 0, i32 1
  store ptr @_SPI_error_callback, ptr %19, align 8
  %20 = getelementptr inbounds nuw %struct.ErrorContextCallback, ptr %9, i32 0, i32 2
  store ptr %8, ptr %20, align 8
  %21 = load ptr, ptr @error_context_stack, align 8
  %22 = getelementptr inbounds nuw %struct.ErrorContextCallback, ptr %9, i32 0, i32 0
  store ptr %21, ptr %22, align 8
  store ptr %9, ptr @error_context_stack, align 8
  %23 = load ptr, ptr %3, align 8
  %24 = load ptr, ptr %4, align 8
  %25 = getelementptr inbounds nuw %struct._SPI_plan, ptr %24, i32 0, i32 5
  %26 = load i32, ptr %25, align 8
  %27 = call ptr @raw_parser(ptr noundef %23, i32 noundef %26)
  store ptr %27, ptr %5, align 8
  store ptr null, ptr %6, align 8
  call void @llvm.lifetime.start.p0(i64 16, ptr %10) #9
  %28 = getelementptr inbounds nuw %struct.ForEachState, ptr %10, i32 0, i32 0
  %29 = load ptr, ptr %5, align 8
  store ptr %29, ptr %28, align 8
  %30 = getelementptr inbounds nuw %struct.ForEachState, ptr %10, i32 0, i32 1
  store i32 0, ptr %30, align 8
  %31 = getelementptr i8, ptr %10, i64 12
  call void @llvm.memset.p0.i64(ptr align 4 %31, i8 0, i64 4, i1 false)
  br label %32

32:                                               ; preds = %71, %2
  %33 = getelementptr inbounds nuw %struct.ForEachState, ptr %10, i32 0, i32 0
  %34 = load ptr, ptr %33, align 8
  %35 = icmp ne ptr %34, null
  br i1 %35, label %36, label %53

36:                                               ; preds = %32
  %37 = getelementptr inbounds nuw %struct.ForEachState, ptr %10, i32 0, i32 1
  %38 = load i32, ptr %37, align 8
  %39 = getelementptr inbounds nuw %struct.ForEachState, ptr %10, i32 0, i32 0
  %40 = load ptr, ptr %39, align 8
  %41 = getelementptr inbounds nuw %struct.List, ptr %40, i32 0, i32 1
  %42 = load i32, ptr %41, align 4
  %43 = icmp slt i32 %38, %42
  br i1 %43, label %44, label %53

44:                                               ; preds = %36
  %45 = getelementptr inbounds nuw %struct.ForEachState, ptr %10, i32 0, i32 0
  %46 = load ptr, ptr %45, align 8
  %47 = getelementptr inbounds nuw %struct.List, ptr %46, i32 0, i32 3
  %48 = load ptr, ptr %47, align 8
  %49 = getelementptr inbounds nuw %struct.ForEachState, ptr %10, i32 0, i32 1
  %50 = load i32, ptr %49, align 8
  %51 = sext i32 %50 to i64
  %52 = getelementptr inbounds %union.ListCell, ptr %48, i64 %51
  store ptr %52, ptr %7, align 8
  br label %54

53:                                               ; preds = %36, %32
  store ptr null, ptr %7, align 8
  br label %54

54:                                               ; preds = %53, %44
  %55 = phi i32 [ 1, %44 ], [ 0, %53 ]
  %56 = icmp ne i32 %55, 0
  br i1 %56, label %58, label %57

57:                                               ; preds = %54
  call void @llvm.lifetime.end.p0(i64 16, ptr %10) #9
  br label %75

58:                                               ; preds = %54
  call void @llvm.lifetime.start.p0(i64 8, ptr %11) #9
  %59 = load ptr, ptr %7, align 8
  %60 = load ptr, ptr %59, align 8
  store ptr %60, ptr %11, align 8
  call void @llvm.lifetime.start.p0(i64 8, ptr %12) #9
  %61 = load ptr, ptr %11, align 8
  %62 = load ptr, ptr %3, align 8
  %63 = load ptr, ptr %11, align 8
  %64 = getelementptr inbounds nuw %struct.RawStmt, ptr %63, i32 0, i32 1
  %65 = load ptr, ptr %64, align 8
  %66 = call i32 @CreateCommandTag(ptr noundef %65)
  %67 = call ptr @CreateOneShotCachedPlan(ptr noundef %61, ptr noundef %62, i32 noundef %66)
  store ptr %67, ptr %12, align 8
  %68 = load ptr, ptr %6, align 8
  %69 = load ptr, ptr %12, align 8
  %70 = call ptr @lappend(ptr noundef %68, ptr noundef %69)
  store ptr %70, ptr %6, align 8
  call void @llvm.lifetime.end.p0(i64 8, ptr %12) #9
  call void @llvm.lifetime.end.p0(i64 8, ptr %11) #9
  br label %71

71:                                               ; preds = %58
  %72 = getelementptr inbounds nuw %struct.ForEachState, ptr %10, i32 0, i32 1
  %73 = load i32, ptr %72, align 8
  %74 = add i32 %73, 1
  store i32 %74, ptr %72, align 8
  br label %32, !llvm.loop !10

75:                                               ; preds = %57
  %76 = load ptr, ptr %6, align 8
  %77 = load ptr, ptr %4, align 8
  %78 = getelementptr inbounds nuw %struct._SPI_plan, ptr %77, i32 0, i32 3
  store ptr %76, ptr %78, align 8
  %79 = load ptr, ptr %4, align 8
  %80 = getelementptr inbounds nuw %struct._SPI_plan, ptr %79, i32 0, i32 2
  store i8 1, ptr %80, align 1
  %81 = getelementptr inbounds nuw %struct.ErrorContextCallback, ptr %9, i32 0, i32 0
  %82 = load ptr, ptr %81, align 8
  store ptr %82, ptr @error_context_stack, align 8
  call void @llvm.lifetime.end.p0(i64 24, ptr %9) #9
  call void @llvm.lifetime.end.p0(i64 16, ptr %8) #9
  call void @llvm.lifetime.end.p0(i64 8, ptr %7) #9
  call void @llvm.lifetime.end.p0(i64 8, ptr %6) #9
  call void @llvm.lifetime.end.p0(i64 8, ptr %5) #9
  ret void
}

; Function Attrs: nounwind uwtable
define internal i32 @_SPI_begin_call(i1 noundef zeroext %0) #0 {
  %2 = alloca i32, align 4
  %3 = alloca i8, align 1
  %4 = zext i1 %0 to i8
  store i8 %4, ptr %3, align 1
  %5 = load ptr, ptr @_SPI_current, align 8
  %6 = icmp eq ptr %5, null
  br i1 %6, label %7, label %8

7:                                                ; preds = %1
  store i32 -4, ptr %2, align 4
  br label %17

8:                                                ; preds = %1
  %9 = load i8, ptr %3, align 1, !range !4, !noundef !5
  %10 = trunc i8 %9 to i1
  br i1 %10, label %11, label %16

11:                                               ; preds = %8
  %12 = call i32 @GetCurrentSubTransactionId()
  %13 = load ptr, ptr @_SPI_current, align 8
  %14 = getelementptr inbounds nuw %struct._SPI_connection, ptr %13, i32 0, i32 2
  store i32 %12, ptr %14, align 8
  %15 = call ptr @_SPI_execmem()
  br label %16

16:                                               ; preds = %11, %8
  store i32 0, ptr %2, align 4
  br label %17

17:                                               ; preds = %16, %7
  %18 = load i32, ptr %2, align 4
  ret i32 %18
}

; Function Attrs: nounwind uwtable
define dso_local i32 @SPI_execute_extended(ptr noundef %0, ptr noundef %1) #0 {
  %3 = alloca i32, align 4
  %4 = alloca ptr, align 8
  %5 = alloca ptr, align 8
  %6 = alloca i32, align 4
  %7 = alloca %struct._SPI_plan, align 8
  %8 = alloca i32, align 4
  store ptr %0, ptr %4, align 8
  store ptr %1, ptr %5, align 8
  call void @llvm.lifetime.start.p0(i64 4, ptr %6) #9
  call void @llvm.lifetime.start.p0(i64 64, ptr %7) #9
  %9 = load ptr, ptr %4, align 8
  %10 = icmp eq ptr %9, null
  br i1 %10, label %14, label %11

11:                                               ; preds = %2
  %12 = load ptr, ptr %5, align 8
  %13 = icmp eq ptr %12, null
  br i1 %13, label %14, label %15

14:                                               ; preds = %11, %2
  store i32 -6, ptr %3, align 4
  store i32 1, ptr %8, align 4
  br label %48

15:                                               ; preds = %11
  %16 = call i32 @_SPI_begin_call(i1 noundef zeroext true)
  store i32 %16, ptr %6, align 4
  %17 = load i32, ptr %6, align 4
  %18 = icmp slt i32 %17, 0
  br i1 %18, label %19, label %21

19:                                               ; preds = %15
  %20 = load i32, ptr %6, align 4
  store i32 %20, ptr %3, align 4
  store i32 1, ptr %8, align 4
  br label %48

21:                                               ; preds = %15
  call void @llvm.memset.p0.i64(ptr align 8 %7, i8 0, i64 64, i1 false)
  %22 = getelementptr inbounds nuw %struct._SPI_plan, ptr %7, i32 0, i32 0
  store i32 569278163, ptr %22, align 8
  %23 = getelementptr inbounds nuw %struct._SPI_plan, ptr %7, i32 0, i32 5
  store i32 0, ptr %23, align 8
  %24 = getelementptr inbounds nuw %struct._SPI_plan, ptr %7, i32 0, i32 6
  store i32 2048, ptr %24, align 4
  %25 = load ptr, ptr %5, align 8
  %26 = getelementptr inbounds nuw %struct.SPIExecuteOptions, ptr %25, i32 0, i32 0
  %27 = load ptr, ptr %26, align 8
  %28 = icmp ne ptr %27, null
  br i1 %28, label %29, label %42

29:                                               ; preds = %21
  %30 = load ptr, ptr %5, align 8
  %31 = getelementptr inbounds nuw %struct.SPIExecuteOptions, ptr %30, i32 0, i32 0
  %32 = load ptr, ptr %31, align 8
  %33 = getelementptr inbounds nuw %struct.ParamListInfoData, ptr %32, i32 0, i32 4
  %34 = load ptr, ptr %33, align 8
  %35 = getelementptr inbounds nuw %struct._SPI_plan, ptr %7, i32 0, i32 9
  store ptr %34, ptr %35, align 8
  %36 = load ptr, ptr %5, align 8
  %37 = getelementptr inbounds nuw %struct.SPIExecuteOptions, ptr %36, i32 0, i32 0
  %38 = load ptr, ptr %37, align 8
  %39 = getelementptr inbounds nuw %struct.ParamListInfoData, ptr %38, i32 0, i32 5
  %40 = load ptr, ptr %39, align 8
  %41 = getelementptr inbounds nuw %struct._SPI_plan, ptr %7, i32 0, i32 10
  store ptr %40, ptr %41, align 8
  br label %42

42:                                               ; preds = %29, %21
  %43 = load ptr, ptr %4, align 8
  call void @_SPI_prepare_oneshot_plan(ptr noundef %43, ptr noundef %7)
  %44 = load ptr, ptr %5, align 8
  %45 = call i32 @_SPI_execute_plan(ptr noundef %7, ptr noundef %44, ptr noundef null, ptr noundef null, i1 noundef zeroext true)
  store i32 %45, ptr %6, align 4
  %46 = call i32 @_SPI_end_call(i1 noundef zeroext true)
  %47 = load i32, ptr %6, align 4
  store i32 %47, ptr %3, align 4
  store i32 1, ptr %8, align 4
  br label %48

48:                                               ; preds = %42, %19, %14
  call void @llvm.lifetime.end.p0(i64 64, ptr %7) #9
  call void @llvm.lifetime.end.p0(i64 4, ptr %6) #9
  %49 = load i32, ptr %3, align 4
  ret i32 %49
}