; Function Attrs: nounwind uwtable
define dso_local i32 @SPI_execute_extended(ptr noundef %0, ptr noundef readonly captures(address_is_null) %1) local_unnamed_addr #0 {
  %3 = alloca %struct.SPICallbackArg, align 8
  %4 = alloca %struct.ErrorContextCallback, align 8
  %5 = alloca %struct._SPI_plan, align 8
  call void @llvm.lifetime.start.p0(i64 64, ptr nonnull %5) #15
  %6 = icmp eq ptr %0, null
  %7 = icmp eq ptr %1, null
  %or.cond = or i1 %6, %7
  br i1 %or.cond, label %_SPI_begin_call.exit, label %8

8:                                                ; preds = %2
  %9 = load ptr, ptr @_SPI_current, align 8
  %.not16 = icmp eq ptr %9, null
  br i1 %.not16, label %_SPI_begin_call.exit, label %_SPI_begin_call.exit.thread

_SPI_begin_call.exit.thread:                      ; preds = %8
  %10 = tail call i32 @GetCurrentSubTransactionId() #15
  %11 = load ptr, ptr @_SPI_current, align 8
  %12 = getelementptr inbounds nuw i8, ptr %11, i64 16
  store i32 %10, ptr %12, align 8
  %13 = getelementptr inbounds nuw i8, ptr %11, i64 40
  %14 = load ptr, ptr %13, align 8
  store ptr %14, ptr @CurrentMemoryContext, align 8
  call void @llvm.memset.p0.i64(ptr noundef nonnull align 8 dereferenceable(64) %5, i8 0, i64 64, i1 false)
  store i32 569278163, ptr %5, align 8
  %15 = getelementptr inbounds nuw i8, ptr %5, i64 28
  store i32 2048, ptr %15, align 4
  %16 = load ptr, ptr %1, align 8
  %.not = icmp eq ptr %16, null
  br i1 %.not, label %24, label %17

17:                                               ; preds = %_SPI_begin_call.exit.thread
  %18 = getelementptr inbounds nuw i8, ptr %16, i64 32
  %19 = load ptr, ptr %18, align 8
  %20 = getelementptr inbounds nuw i8, ptr %5, i64 48
  store ptr %19, ptr %20, align 8
  %21 = getelementptr inbounds nuw i8, ptr %16, i64 40
  %22 = load ptr, ptr %21, align 8
  %23 = getelementptr inbounds nuw i8, ptr %5, i64 56
  store ptr %22, ptr %23, align 8
  br label %24

24:                                               ; preds = %17, %_SPI_begin_call.exit.thread
  call void @llvm.lifetime.start.p0(i64 16, ptr nonnull %3) #15
  call void @llvm.lifetime.start.p0(i64 24, ptr nonnull %4) #15
  store ptr %0, ptr %3, align 8
  %25 = getelementptr inbounds nuw i8, ptr %3, i64 8
  store i32 0, ptr %25, align 8
  %26 = getelementptr inbounds nuw i8, ptr %4, i64 8
  store ptr @_SPI_error_callback, ptr %26, align 8
  %27 = getelementptr inbounds nuw i8, ptr %4, i64 16
  store ptr %3, ptr %27, align 8
  %28 = load ptr, ptr @error_context_stack, align 8
  store ptr %28, ptr %4, align 8
  store ptr %4, ptr @error_context_stack, align 8
  %29 = call ptr @raw_parser(ptr noundef nonnull %0, i32 noundef 0) #15
  %30 = getelementptr inbounds nuw i8, ptr %29, i64 4
  %.not.i = icmp eq ptr %29, null
  br i1 %.not.i, label %_SPI_prepare_oneshot_plan.exit, label %.lr.ph.i

.lr.ph.i:                                         ; preds = %24
  %31 = getelementptr inbounds nuw i8, ptr %29, i64 16
  %32 = load i32, ptr %30, align 4
  %33 = icmp sgt i32 %32, 0
  br i1 %33, label %.lr.ph30.i, label %_SPI_prepare_oneshot_plan.exit

.lr.ph30.i:                                       ; preds = %.lr.ph.i, %.lr.ph30.i
  %indvars.iv.i = phi i64 [ %indvars.iv.next.i, %.lr.ph30.i ], [ 0, %.lr.ph.i ]
  %.02428.i = phi ptr [ %41, %.lr.ph30.i ], [ null, %.lr.ph.i ]
  %34 = load ptr, ptr %31, align 8
  %35 = getelementptr inbounds nuw %union.ListCell, ptr %34, i64 %indvars.iv.i
  %36 = load ptr, ptr %35, align 8
  %37 = getelementptr inbounds nuw i8, ptr %36, i64 8
  %38 = load ptr, ptr %37, align 8
  %39 = call i32 @CreateCommandTag(ptr noundef %38) #15
  %40 = call ptr @CreateOneShotCachedPlan(ptr noundef %36, ptr noundef nonnull %0, i32 noundef %39) #15
  %41 = call ptr @lappend(ptr noundef %.02428.i, ptr noundef %40) #15
  %indvars.iv.next.i = add nuw nsw i64 %indvars.iv.i, 1
  %42 = load i32, ptr %30, align 4
  %43 = sext i32 %42 to i64
  %44 = icmp slt i64 %indvars.iv.next.i, %43
  br i1 %44, label %.lr.ph30.i, label %_SPI_prepare_oneshot_plan.exit

_SPI_prepare_oneshot_plan.exit:                   ; preds = %.lr.ph30.i, %24, %.lr.ph.i
  %.0.lcssa.i = phi ptr [ null, %24 ], [ null, %.lr.ph.i ], [ %41, %.lr.ph30.i ]
  %45 = getelementptr inbounds nuw i8, ptr %5, i64 8
  store ptr %.0.lcssa.i, ptr %45, align 8
  %46 = getelementptr inbounds nuw i8, ptr %5, i64 5
  store i8 1, ptr %46, align 1
  %47 = load ptr, ptr %4, align 8
  store ptr %47, ptr @error_context_stack, align 8
  call void @llvm.lifetime.end.p0(i64 24, ptr nonnull %4) #15
  call void @llvm.lifetime.end.p0(i64 16, ptr nonnull %3) #15
  %48 = call fastcc i32 @_SPI_execute_plan(ptr noundef %5, ptr noundef %1, ptr noundef null, ptr noundef null, i1 noundef zeroext true)
  %49 = load ptr, ptr @_SPI_current, align 8
  %50 = getelementptr inbounds nuw i8, ptr %49, i64 32
  %51 = load ptr, ptr %50, align 8
  store ptr %51, ptr @CurrentMemoryContext, align 8
  %52 = getelementptr inbounds nuw i8, ptr %49, i64 16
  store i32 0, ptr %52, align 8
  %53 = getelementptr inbounds nuw i8, ptr %49, i64 40
  %54 = load ptr, ptr %53, align 8
  call void @MemoryContextReset(ptr noundef %54) #15
  br label %_SPI_begin_call.exit

_SPI_begin_call.exit:                             ; preds = %8, %2, %_SPI_prepare_oneshot_plan.exit
  %.0 = phi i32 [ %48, %_SPI_prepare_oneshot_plan.exit ], [ -6, %2 ], [ -4, %8 ]
  call void @llvm.lifetime.end.p0(i64 64, ptr nonnull %5) #15
  ret i32 %.0
}